; Function Attrs: mustprogress uwtable
define noundef ptr @_ZN7rocksdb22BlockCacheTierMetadata5EvictEv(ptr noundef nonnull align 8 dereferenceable(96) %0) local_unnamed_addr #0 align 2 personality ptr @__gxx_personality_v0 {
  %2 = alloca %"class.std::function", align 8
  %3 = getelementptr inbounds nuw i8, ptr %0, i64 8
  call void @llvm.lifetime.start.p0(i64 32, ptr nonnull %2) #15
  %4 = getelementptr inbounds nuw i8, ptr %2, i64 16
  %5 = getelementptr inbounds nuw i8, ptr %2, i64 24
  %6 = getelementptr inbounds nuw i8, ptr %2, i64 8
  store i64 0, ptr %6, align 8
  %7 = tail call noalias noundef nonnull dereferenceable(24) ptr @_Znwm(i64 noundef 24) #14
  store i64 25, ptr %7, align 16
  %.sroa.5.0..sroa_idx = getelementptr inbounds nuw i8, ptr %7, i64 8
  store i64 0, ptr %.sroa.5.0..sroa_idx, align 8
  %.sroa.6.0..sroa_idx = getelementptr inbounds nuw i8, ptr %7, i64 16
  store ptr %0, ptr %.sroa.6.0..sroa_idx, align 16
  store ptr %7, ptr %2, align 8, !tbaa !70
  store ptr @_ZNSt17_Function_handlerIFvPN7rocksdb14BlockCacheFileEESt5_BindIFMNS0_22BlockCacheTierMetadataEFvS2_EPS5_St12_PlaceholderILi1EEEEE9_M_invokeERKSt9_Any_dataOS2_, ptr %5, align 8, !tbaa !72
  store ptr @_ZNSt17_Function_handlerIFvPN7rocksdb14BlockCacheFileEESt5_BindIFMNS0_22BlockCacheTierMetadataEFvS2_EPS5_St12_PlaceholderILi1EEEEE10_M_managerERSt9_Any_dataRKSE_St18_Manager_operation, ptr %4, align 8, !tbaa !75
  %8 = invoke noundef ptr @_ZN7rocksdb18EvictableHashTableINS_14BlockCacheFileENS_22BlockCacheTierMetadata18BlockCacheFileHashENS2_19BlockCacheFileEqualEE5EvictERKSt8functionIFvPS1_EE(ptr noundef nonnull align 8 dereferenceable(48) %3, ptr noundef nonnull align 8 dereferenceable(32) %2)
          to label %9 unwind label %16

9:                                                ; preds = %1
  %10 = load ptr, ptr %4, align 8, !tbaa !75
  %.not.i = icmp eq ptr %10, null
  br i1 %.not.i, label %_ZNSt14_Function_baseD2Ev.exit, label %11

11:                                               ; preds = %9
  %12 = invoke noundef zeroext i1 %10(ptr noundef nonnull align 8 dereferenceable(32) %2, ptr noundef nonnull align 8 dereferenceable(32) %2, i32 noundef 3)
          to label %_ZNSt14_Function_baseD2Ev.exit unwind label %13

13:                                               ; preds = %11
  %14 = landingpad { ptr, i32 }
          catch ptr null
  %15 = extractvalue { ptr, i32 } %14, 0
  call void @__clang_call_terminate(ptr %15) #16
  unreachable

_ZNSt14_Function_baseD2Ev.exit:                   ; preds = %9, %11
  call void @llvm.lifetime.end.p0(i64 32, ptr nonnull %2) #15
  ret ptr %8

16:                                               ; preds = %1
  %17 = landingpad { ptr, i32 }
          cleanup
  %18 = load ptr, ptr %4, align 8, !tbaa !75
  %.not.i2 = icmp eq ptr %18, null
  br i1 %.not.i2, label %_ZNSt14_Function_baseD2Ev.exit3, label %19

19:                                               ; preds = %16
  %20 = invoke noundef zeroext i1 %18(ptr noundef nonnull align 8 dereferenceable(32) %2, ptr noundef nonnull align 8 dereferenceable(32) %2, i32 noundef 3)
          to label %_ZNSt14_Function_baseD2Ev.exit3 unwind label %21

21:                                               ; preds = %19
  %22 = landingpad { ptr, i32 }
          catch ptr null
  %23 = extractvalue { ptr, i32 } %22, 0
  call void @__clang_call_terminate(ptr %23) #16
  unreachable

_ZNSt14_Function_baseD2Ev.exit3:                  ; preds = %16, %19
  call void @llvm.lifetime.end.p0(i64 32, ptr nonnull %2) #15
  resume { ptr, i32 } %17
}